; Function Attrs: mustprogress uwtable
define internal void @_ZN5arrow7compute12_GLOBAL__N_116AnyKeysSegmenter5ResetEv(ptr noalias nocapture writeonly sret(%"class.arrow::Status") align 8 %agg.result, ptr nocapture noundef nonnull align 8 dereferenceable(52) %this) unnamed_addr #2 align 2 {
entry:
  %grouper_ = getelementptr inbounds i8, ptr %this, i64 40
  %0 = load ptr, ptr %grouper_, align 8
  store ptr null, ptr %grouper_, align 8
  %tobool.not.i.i.i = icmp eq ptr %0, null
  br i1 %tobool.not.i.i.i, label %_ZNSt10unique_ptrIN5arrow7compute7GrouperESt14default_deleteIS2_EEaSEDn.exit, label %_ZNKSt14default_deleteIN5arrow7compute7GrouperEEclEPS2_.exit.i.i.i

_ZNKSt14default_deleteIN5arrow7compute7GrouperEEclEPS2_.exit.i.i.i: ; preds = %entry
  %vtable.i.i.i.i = load ptr, ptr %0, align 8
  %vfn.i.i.i.i = getelementptr inbounds i8, ptr %vtable.i.i.i.i, i64 8
  %1 = load ptr, ptr %vfn.i.i.i.i, align 8
  tail call void %1(ptr noundef nonnull align 8 dereferenceable(8) %0) #26
  br label %_ZNSt10unique_ptrIN5arrow7compute7GrouperESt14default_deleteIS2_EEaSEDn.exit

_ZNSt10unique_ptrIN5arrow7compute7GrouperESt14default_deleteIS2_EEaSEDn.exit: ; preds = %entry, %_ZNKSt14default_deleteIN5arrow7compute7GrouperEEclEPS2_.exit.i.i.i
  %save_group_id_ = getelementptr inbounds i8, ptr %this, i64 48
  store i32 -1, ptr %save_group_id_, align 8
  store ptr null, ptr %agg.result, align 8, !alias.scope !138
  ret void
}